(lp0
(lp1
S'employee'
p2
aS'id'
p3
aS'INT'
p4
aS''
p5
aa(lp6
g2
aS'name'
p7
aS'STRING'
p8
ag5
aa(lp9
g2
aS'division'
p10
aS'STRING'
p11
ag5
aa(lp12
S'salary'
p13
aS'id'
p14
aS'INT'
p15
ag5
aa(lp16
g13
aS'salary'
p17
aS'INT'
p18
ag5
aa(lp19
S'head'
p20
aS'boss'
p21
aS'INT'
p22
ag5
aa(lp23
g20
aS'division'
p24
aS'STRING'
p25
ag5
aa.